target datalayout = "e-m:e-p270:32:32-p271:32:32-p272:64:64-i64:64-i128:128-f80:128-n8:16:32:64-S128"
target triple = "x86_64-pc-linux-gnu"

@.str.40 = private unnamed_addr constant [52 x i8] c"'setfenv' cannot change environment of given object\00", align 1

; Function Attrs: nounwind uwtable
define internal i32 @db_setfenv(ptr noundef %0) #0 {
  %2 = alloca ptr, align 8
  store ptr %0, ptr %2, align 8, !tbaa !4
  %3 = load ptr, ptr %2, align 8, !tbaa !4
  call void @luaL_checktype(ptr noundef %3, i32 noundef 2, i32 noundef 5)
  %4 = load ptr, ptr %2, align 8, !tbaa !4
  call void @lua_settop(ptr noundef %4, i32 noundef 2)
  %5 = load ptr, ptr %2, align 8, !tbaa !4
  %6 = call i32 @lua_setfenv(ptr noundef %5, i32 noundef 1)
  %7 = icmp eq i32 %6, 0
  br i1 %7, label %8, label %11

8:                                                ; preds = %1
  %9 = load ptr, ptr %2, align 8, !tbaa !4
  %10 = call i32 (ptr, ptr, ...) @luaL_error(ptr noundef %9, ptr noundef @.str.40)
  br label %11

11:                                               ; preds = %8, %1
  ret i32 1
}