; Function Attrs: nounwind uwtable
define internal noundef i32 @db_setfenv(ptr noundef %0) #0 {
  tail call void @luaL_checktype(ptr noundef %0, i32 noundef 2, i32 noundef 5) #8
  tail call void @lua_settop(ptr noundef %0, i32 noundef 2) #8
  %2 = tail call i32 @lua_setfenv(ptr noundef %0, i32 noundef 1) #8
  %3 = icmp eq i32 %2, 0
  br i1 %3, label %4, label %6

4:                                                ; preds = %1
  %5 = tail call i32 (ptr, ptr, ...) @luaL_error(ptr noundef %0, ptr noundef nonnull @.str.40) #8
  br label %6

6:                                                ; preds = %4, %1
  ret i32 1
}